; Function Attrs: null_pointer_is_valid sspstrong uwtable
define internal void @dissect_pfcp_update_qer(ptr noundef %0, ptr noundef %1, ptr noundef %2, ptr noundef %3, i16 noundef zeroext %4, i8 noundef zeroext %5, ptr noundef %6) #0 {
  tail call void (ptr, ptr, ...) @proto_item_append_text(ptr noundef %3, ptr noundef nonnull @.str.2649)
  tail call fastcc void @dissect_pfcp_ies_common(ptr noundef %0, ptr noundef %1, ptr noundef %2, i32 noundef 0, i16 noundef zeroext %4, i8 noundef zeroext %5, ptr noundef %6)
  %8 = getelementptr inbounds nuw i8, ptr %6, i64 60
  %9 = load i32, ptr %8, align 4
  %10 = icmp slt i32 %9, 0
  %11 = tail call ptr @tfs_get_string(i1 noundef zeroext %10, ptr noundef nonnull @pfcp_id_predef_dynamic_tfs)
  %12 = load i32, ptr %8, align 4
  %13 = and i32 %12, 2147483647
  tail call void (ptr, ptr, ...) @proto_item_append_text(ptr noundef %3, ptr noundef nonnull @.str.2652, ptr noundef %11, i32 noundef %13)
  ret void
}